target datalayout = "e-m:e-p270:32:32-p271:32:32-p272:64:64-i64:64-i128:128-f80:128-n8:16:32:64-S128"
target triple = "x86_64-pc-linux-gnu"

%struct.NAME_CONSTRAINTS_st = type { ptr, ptr }

@.str.10 = private unnamed_addr constant [10 x i8] c"Permitted\00", align 1
@.str.11 = private unnamed_addr constant [2 x i8] c"\0A\00", align 1
@.str.12 = private unnamed_addr constant [9 x i8] c"Excluded\00", align 1

; Function Attrs: nounwind uwtable
define internal i32 @i2r_NAME_CONSTRAINTS(ptr noundef %0, ptr noundef %1, ptr noundef %2, i32 noundef %3) #0 {
  %5 = alloca ptr, align 8
  %6 = alloca ptr, align 8
  %7 = alloca ptr, align 8
  %8 = alloca i32, align 4
  %9 = alloca ptr, align 8
  store ptr %0, ptr %5, align 8, !tbaa !3
  store ptr %1, ptr %6, align 8, !tbaa !20
  store ptr %2, ptr %7, align 8, !tbaa !34
  store i32 %3, ptr %8, align 4, !tbaa !18
  call void @llvm.lifetime.start.p0(i64 8, ptr %9) #6
  %10 = load ptr, ptr %6, align 8, !tbaa !20
  store ptr %10, ptr %9, align 8, !tbaa !14
  %11 = load ptr, ptr %5, align 8, !tbaa !3
  %12 = load ptr, ptr %9, align 8, !tbaa !14
  %13 = getelementptr inbounds nuw %struct.NAME_CONSTRAINTS_st, ptr %12, i32 0, i32 0
  %14 = load ptr, ptr %13, align 8, !tbaa !36
  %15 = load ptr, ptr %7, align 8, !tbaa !34
  %16 = load i32, ptr %8, align 4, !tbaa !18
  %17 = call i32 @do_i2r_name_constraints(ptr noundef %11, ptr noundef %14, ptr noundef %15, i32 noundef %16, ptr noundef @.str.10)
  %18 = load ptr, ptr %9, align 8, !tbaa !14
  %19 = getelementptr inbounds nuw %struct.NAME_CONSTRAINTS_st, ptr %18, i32 0, i32 0
  %20 = load ptr, ptr %19, align 8, !tbaa !36
  %21 = icmp ne ptr %20, null
  br i1 %21, label %22, label %30

22:                                               ; preds = %4
  %23 = load ptr, ptr %9, align 8, !tbaa !14
  %24 = getelementptr inbounds nuw %struct.NAME_CONSTRAINTS_st, ptr %23, i32 0, i32 1
  %25 = load ptr, ptr %24, align 8, !tbaa !38
  %26 = icmp ne ptr %25, null
  br i1 %26, label %27, label %30

27:                                               ; preds = %22
  %28 = load ptr, ptr %7, align 8, !tbaa !34
  %29 = call i32 @BIO_puts(ptr noundef %28, ptr noundef @.str.11)
  br label %30

30:                                               ; preds = %27, %22, %4
  %31 = load ptr, ptr %5, align 8, !tbaa !3
  %32 = load ptr, ptr %9, align 8, !tbaa !14
  %33 = getelementptr inbounds nuw %struct.NAME_CONSTRAINTS_st, ptr %32, i32 0, i32 1
  %34 = load ptr, ptr %33, align 8, !tbaa !38
  %35 = load ptr, ptr %7, align 8, !tbaa !34
  %36 = load i32, ptr %8, align 4, !tbaa !18
  %37 = call i32 @do_i2r_name_constraints(ptr noundef %31, ptr noundef %34, ptr noundef %35, i32 noundef %36, ptr noundef @.str.12)
  call void @llvm.lifetime.end.p0(i64 8, ptr %9) #6
  ret i32 1
}