; Function Attrs: nounwind uwtable
define internal noundef i32 @i2r_NAME_CONSTRAINTS(ptr readnone captures(none) %0, ptr noundef readonly captures(none) %1, ptr noundef %2, i32 noundef %3) #1 {
  %5 = load ptr, ptr %1, align 8, !tbaa !19
  tail call fastcc void @do_i2r_name_constraints(ptr noundef %5, ptr noundef %2, i32 noundef %3, ptr noundef nonnull @.str.10)
  %6 = load ptr, ptr %1, align 8, !tbaa !19
  %.not = icmp eq ptr %6, null
  br i1 %.not, label %12, label %7

7:                                                ; preds = %4
  %8 = getelementptr inbounds nuw i8, ptr %1, i64 8
  %9 = load ptr, ptr %8, align 8, !tbaa !21
  %.not11 = icmp eq ptr %9, null
  br i1 %.not11, label %12, label %10

10:                                               ; preds = %7
  %11 = tail call i32 @BIO_puts(ptr noundef %2, ptr noundef nonnull @.str.11) #9
  br label %12

12:                                               ; preds = %10, %7, %4
  %13 = getelementptr inbounds nuw i8, ptr %1, i64 8
  %14 = load ptr, ptr %13, align 8, !tbaa !21
  tail call fastcc void @do_i2r_name_constraints(ptr noundef %14, ptr noundef %2, i32 noundef %3, ptr noundef nonnull @.str.12)
  ret i32 1
}